; Function Attrs: nounwind uwtable
define dso_local void @blockClient(ptr noundef %0, i32 noundef %1) local_unnamed_addr #0 {
  %3 = getelementptr inbounds nuw i8, ptr %0, i64 8
  %4 = load i64, ptr %3, align 8, !tbaa !34
  %.fr16 = freeze i64 %4
  %5 = and i64 %.fr16, 2
  %6 = icmp eq i64 %5, 0
  br i1 %6, label %8, label %switch.early.test

switch.early.test:                                ; preds = %2
  switch i32 %1, label %7 [
    i32 9, label %8
    i32 7, label %8
    i32 4, label %8
  ]

7:                                                ; preds = %switch.early.test
  tail call void @_serverAssert(ptr noundef nonnull @.str, ptr noundef nonnull @.str.1, i32 noundef 72) #5
  tail call void @abort() #6
  unreachable

8:                                                ; preds = %switch.early.test, %switch.early.test, %switch.early.test, %2
  %9 = or i64 %.fr16, 16
  store i64 %9, ptr %3, align 8, !tbaa !34
  %10 = getelementptr inbounds nuw i8, ptr %0, i64 480
  store i32 %1, ptr %10, align 8, !tbaa !5
  %11 = and i64 %.fr16, 134217728
  %.not = icmp eq i64 %11, 0
  br i1 %.not, label %12, label %15

12:                                               ; preds = %8
  %13 = load i32, ptr getelementptr inbounds nuw (i8, ptr @server, i64 7588), align 4, !tbaa !35
  %14 = add i32 %13, 1
  store i32 %14, ptr getelementptr inbounds nuw (i8, ptr @server, i64 7588), align 4, !tbaa !35
  br label %15

15:                                               ; preds = %12, %8
  %16 = sext i32 %1 to i64
  %17 = getelementptr inbounds [10 x i32], ptr getelementptr inbounds nuw (i8, ptr @server, i64 7592), i64 0, i64 %16
  %18 = load i32, ptr %17, align 4, !tbaa !56
  %19 = add i32 %18, 1
  store i32 %19, ptr %17, align 4, !tbaa !56
  tail call void @addClientToTimeoutTable(ptr noundef nonnull %0) #5
  ret void
}